; Function Attrs: nounwind sspstrong uwtable
define internal i64 @pack_unpack1(ptr readnone captures(none) %0, i64 noundef %1, i64 noundef %2, i64 noundef %3) #0 {
  %5 = and i64 %3, 1
  %.not.i = icmp eq i64 %5, 0
  br i1 %.not.i, label %8, label %6

6:                                                ; preds = %4
  %7 = ashr i64 %3, 1
  br label %rb_num2long_inline.exit

8:                                                ; preds = %4
  %9 = tail call i64 @rb_num2long(i64 noundef %3) #13
  br label %rb_num2long_inline.exit

rb_num2long_inline.exit:                          ; preds = %6, %8
  %.0.i = phi i64 [ %7, %6 ], [ %9, %8 ]
  %10 = tail call fastcc i64 @pack_unpack_internal(i64 noundef %1, i64 noundef %2, i32 noundef 2, i64 noundef %.0.i)
  ret i64 %10
}